; Function Attrs: nounwind uwtable
define internal noundef nonnull ptr @progress_engine(ptr noundef readonly captures(none) %0) #0 {
  %2 = getelementptr inbounds nuw i8, ptr %0, i64 128
  %3 = load ptr, ptr %2, align 8, !tbaa !77
  %4 = getelementptr inbounds nuw i8, ptr %3, i64 168
  %5 = load volatile i8, ptr %4, align 8, !tbaa !63, !range !61, !noundef !62
  %6 = trunc nuw i8 %5 to i1
  br i1 %6, label %.lr.ph, label %._crit_edge

.lr.ph:                                           ; preds = %1
  %7 = getelementptr inbounds nuw i8, ptr %3, i64 160
  br label %8

8:                                                ; preds = %.lr.ph, %8
  %9 = load ptr, ptr %7, align 8, !tbaa !7
  %10 = tail call i32 @event_base_loop(ptr noundef %9, i32 noundef 1) #14
  %11 = load volatile i8, ptr %4, align 8, !tbaa !63, !range !61, !noundef !62
  %12 = trunc nuw i8 %11 to i1
  br i1 %12, label %8, label %._crit_edge, !llvm.loop !78

._crit_edge:                                      ; preds = %8, %1
  ret ptr inttoptr (i64 1 to ptr)
}